target datalayout = "e-m:e-p270:32:32-p271:32:32-p272:64:64-i64:64-i128:128-f80:128-n8:16:32:64-S128"
target triple = "x86_64-pc-linux-gnu"

%struct.slabclass_t = type { i32, i32, ptr, i32, i32, ptr, i32 }
%union.pthread_mutex_t = type { %struct.__pthread_mutex_s }
%struct.__pthread_mutex_s = type { i32, i32, i32, i32, i32, i16, i16, %struct.__pthread_internal_list }
%struct.__pthread_internal_list = type { ptr, ptr }

@slabclass = internal global [64 x %struct.slabclass_t] zeroinitializer, align 16
@power_largest = internal global i32 0, align 4
@slabs_lock = internal global %union.pthread_mutex_t zeroinitializer, align 8

; Function Attrs: nounwind uwtable
define internal i32 @do_grow_slab_list(i32 noundef %0) #0 {
  %2 = alloca i32, align 4
  %3 = alloca i32, align 4
  %4 = alloca ptr, align 8
  %5 = alloca i64, align 8
  %6 = alloca ptr, align 8
  %7 = alloca i32, align 4
  store i32 %0, ptr %3, align 4, !tbaa !8
  %8 = load i32, ptr %3, align 4, !tbaa !8
  %9 = load i32, ptr @power_largest, align 4, !tbaa !8
  %10 = icmp ugt i32 %8, %9
  br i1 %10, label %11, label %12

11:                                               ; preds = %1
  store i32 0, ptr %2, align 4
  br label %59

12:                                               ; preds = %1
  call void @llvm.lifetime.start.p0(i64 8, ptr %4) #9
  %13 = load i32, ptr %3, align 4, !tbaa !8
  %14 = zext i32 %13 to i64
  %15 = getelementptr inbounds nuw [64 x %struct.slabclass_t], ptr @slabclass, i64 0, i64 %14
  store ptr %15, ptr %4, align 8, !tbaa !25
  %16 = load ptr, ptr %4, align 8, !tbaa !25
  %17 = getelementptr inbounds nuw %struct.slabclass_t, ptr %16, i32 0, i32 4
  %18 = load i32, ptr %17, align 4, !tbaa !27
  %19 = load ptr, ptr %4, align 8, !tbaa !25
  %20 = getelementptr inbounds nuw %struct.slabclass_t, ptr %19, i32 0, i32 6
  %21 = load i32, ptr %20, align 8, !tbaa !32
  %22 = icmp eq i32 %18, %21
  br i1 %22, label %23, label %57

23:                                               ; preds = %12
  call void @llvm.lifetime.start.p0(i64 8, ptr %5) #9
  %24 = load ptr, ptr %4, align 8, !tbaa !25
  %25 = getelementptr inbounds nuw %struct.slabclass_t, ptr %24, i32 0, i32 6
  %26 = load i32, ptr %25, align 8, !tbaa !32
  %27 = icmp ne i32 %26, 0
  br i1 %27, label %28, label %33

28:                                               ; preds = %23
  %29 = load ptr, ptr %4, align 8, !tbaa !25
  %30 = getelementptr inbounds nuw %struct.slabclass_t, ptr %29, i32 0, i32 6
  %31 = load i32, ptr %30, align 8, !tbaa !32
  %32 = mul i32 %31, 2
  br label %34

33:                                               ; preds = %23
  br label %34

34:                                               ; preds = %33, %28
  %35 = phi i32 [ %32, %28 ], [ 16, %33 ]
  %36 = zext i32 %35 to i64
  store i64 %36, ptr %5, align 8, !tbaa !4
  call void @llvm.lifetime.start.p0(i64 8, ptr %6) #9
  %37 = load ptr, ptr %4, align 8, !tbaa !25
  %38 = getelementptr inbounds nuw %struct.slabclass_t, ptr %37, i32 0, i32 5
  %39 = load ptr, ptr %38, align 8, !tbaa !26
  %40 = load i64, ptr %5, align 8, !tbaa !4
  %41 = mul i64 %40, 8
  %42 = call ptr @realloc(ptr noundef %39, i64 noundef %41) #10
  store ptr %42, ptr %6, align 8, !tbaa !25
  %43 = load ptr, ptr %6, align 8, !tbaa !25
  %44 = icmp eq ptr %43, null
  br i1 %44, label %45, label %46

45:                                               ; preds = %34
  store i32 0, ptr %2, align 4
  store i32 1, ptr %7, align 4
  br label %54

46:                                               ; preds = %34
  %47 = load i64, ptr %5, align 8, !tbaa !4
  %48 = trunc i64 %47 to i32
  %49 = load ptr, ptr %4, align 8, !tbaa !25
  %50 = getelementptr inbounds nuw %struct.slabclass_t, ptr %49, i32 0, i32 6
  store i32 %48, ptr %50, align 8, !tbaa !32
  %51 = load ptr, ptr %6, align 8, !tbaa !25
  %52 = load ptr, ptr %4, align 8, !tbaa !25
  %53 = getelementptr inbounds nuw %struct.slabclass_t, ptr %52, i32 0, i32 5
  store ptr %51, ptr %53, align 8, !tbaa !26
  store i32 0, ptr %7, align 4
  br label %54

54:                                               ; preds = %46, %45
  call void @llvm.lifetime.end.p0(i64 8, ptr %6) #9
  call void @llvm.lifetime.end.p0(i64 8, ptr %5) #9
  %55 = load i32, ptr %7, align 4
  switch i32 %55, label %58 [
    i32 0, label %56
  ]

56:                                               ; preds = %54
  br label %57

57:                                               ; preds = %56, %12
  store i32 1, ptr %2, align 4
  store i32 1, ptr %7, align 4
  br label %58

58:                                               ; preds = %57, %54
  call void @llvm.lifetime.end.p0(i64 8, ptr %4) #9
  br label %59

59:                                               ; preds = %58, %11
  %60 = load i32, ptr %2, align 4
  ret i32 %60
}

; Function Attrs: nounwind uwtable
define dso_local i32 @slabs_grow_slab_list(i32 noundef %0) #0 {
  %2 = alloca i32, align 4
  %3 = alloca i32, align 4
  store i32 %0, ptr %2, align 4, !tbaa !8
  call void @llvm.lifetime.start.p0(i64 4, ptr %3) #9
  store i32 0, ptr %3, align 4, !tbaa !8
  %4 = call i32 @pthread_mutex_lock(ptr noundef @slabs_lock) #9
  %5 = load i32, ptr %2, align 4, !tbaa !8
  %6 = call i32 @do_grow_slab_list(i32 noundef %5)
  store i32 %6, ptr %3, align 4, !tbaa !8
  %7 = call i32 @pthread_mutex_unlock(ptr noundef @slabs_lock) #9
  %8 = load i32, ptr %3, align 4, !tbaa !8
  call void @llvm.lifetime.end.p0(i64 4, ptr %3) #9
  ret i32 %8
}