; Function Attrs: nounwind uwtable
define dso_local range(i32 0, 2) i32 @slabs_grow_slab_list(i32 noundef %0) local_unnamed_addr #4 {
  %2 = tail call i32 @pthread_mutex_lock(ptr noundef nonnull @slabs_lock) #21
  %3 = load i32, ptr @power_largest, align 4, !tbaa !17
  %4 = icmp ugt i32 %0, %3
  br i1 %4, label %do_grow_slab_list.exit, label %5

5:                                                ; preds = %1
  %6 = zext i32 %0 to i64
  %7 = getelementptr inbounds nuw [64 x %struct.slabclass_t], ptr @slabclass, i64 0, i64 %6
  %8 = getelementptr inbounds nuw i8, ptr %7, i64 20
  %9 = load i32, ptr %8, align 4, !tbaa !13
  %10 = getelementptr inbounds nuw i8, ptr %7, i64 32
  %11 = load i32, ptr %10, align 8, !tbaa !14
  %12 = icmp eq i32 %9, %11
  br i1 %12, label %13, label %do_grow_slab_list.exit

13:                                               ; preds = %5
  %.not.i = icmp eq i32 %9, 0
  %14 = shl i32 %9, 1
  %spec.select.i = select i1 %.not.i, i32 16, i32 %14
  %15 = zext i32 %spec.select.i to i64
  %16 = getelementptr inbounds nuw i8, ptr %7, i64 24
  %17 = load ptr, ptr %16, align 8, !tbaa !15
  %18 = shl nuw nsw i64 %15, 3
  %19 = tail call ptr @realloc(ptr noundef %17, i64 noundef %18) #20
  %.not18.i = icmp eq ptr %19, null
  br i1 %.not18.i, label %do_grow_slab_list.exit, label %20

20:                                               ; preds = %13
  store i32 %spec.select.i, ptr %10, align 8, !tbaa !14
  store ptr %19, ptr %16, align 8, !tbaa !15
  br label %do_grow_slab_list.exit

do_grow_slab_list.exit:                           ; preds = %1, %5, %13, %20
  %.014.i = phi i32 [ 0, %1 ], [ 0, %13 ], [ 1, %20 ], [ 1, %5 ]
  %21 = tail call i32 @pthread_mutex_unlock(ptr noundef nonnull @slabs_lock) #21
  ret i32 %.014.i
}